target datalayout = "e-m:e-p270:32:32-p271:32:32-p272:64:64-i64:64-i128:128-f80:128-n8:16:32:64-S128"
target triple = "x86_64-pc-linux-gnu"

%struct.SDL_DriverXboxOne_Context = type { ptr, i16, i16, i32, i64, i8, i64, i8, i8, i8, i8, i8, i8, i8, i8, i8, i8, i8, i32, i64, i8, [64 x i8], ptr, i32 }
%struct.SDL_HIDAPI_Device = type { ptr, ptr, ptr, ptr, i16, i16, i16, ptr, %struct.SDL_GUID, i32, i32, i32, i32, i16, i16, i8, i32, i32, i32, ptr, ptr, ptr, ptr, %struct.SDL_AtomicInt, i32, ptr, i8, i8, i8, ptr, i32, ptr, ptr }
%struct.SDL_GUID = type { [16 x i8] }
%struct.SDL_AtomicInt = type { i32 }

@__const.HIDAPI_DriverXboxOne_UpdateRumble.rumble_packet = private unnamed_addr constant [9 x i8] c"\03\0F\00\00\00\00\FF\00\EB", align 1
@.str.9 = private unnamed_addr constant [28 x i8] c"Couldn't send rumble packet\00", align 1
@__const.HIDAPI_DriverXboxOne_UpdateRumble.rumble_packet.10 = private unnamed_addr constant [13 x i8] c"\09\00\00\09\00\0F\00\00\00\00\FF\00\EB", align 1

; Function Attrs: nounwind uwtable
define internal zeroext i1 @HIDAPI_DriverXboxOne_UpdateRumble(ptr noundef %0) #0 {
  %2 = alloca i1, align 1
  %3 = alloca ptr, align 8
  %4 = alloca i32, align 4
  %5 = alloca [9 x i8], align 1
  %6 = alloca i32, align 4
  %7 = alloca [13 x i8], align 1
  store ptr %0, ptr %3, align 8
  %8 = load ptr, ptr %3, align 8
  %9 = getelementptr inbounds nuw %struct.SDL_DriverXboxOne_Context, ptr %8, i32 0, i32 18
  %10 = load i32, ptr %9, align 4
  %11 = icmp eq i32 %10, 1
  br i1 %11, label %12, label %21

12:                                               ; preds = %1
  %13 = load ptr, ptr %3, align 8
  %14 = getelementptr inbounds nuw %struct.SDL_DriverXboxOne_Context, ptr %13, i32 0, i32 19
  %15 = load i64, ptr %14, align 8
  %16 = icmp ne i64 %15, 0
  br i1 %16, label %17, label %20

17:                                               ; preds = %12
  %18 = load ptr, ptr %3, align 8
  %19 = getelementptr inbounds nuw %struct.SDL_DriverXboxOne_Context, ptr %18, i32 0, i32 18
  store i32 2, ptr %19, align 4
  br label %20

20:                                               ; preds = %17, %12
  br label %21

21:                                               ; preds = %20, %1
  %22 = load ptr, ptr %3, align 8
  %23 = getelementptr inbounds nuw %struct.SDL_DriverXboxOne_Context, ptr %22, i32 0, i32 18
  %24 = load i32, ptr %23, align 4
  %25 = icmp eq i32 %24, 2
  br i1 %25, label %26, label %48

26:                                               ; preds = %21
  call void @llvm.lifetime.start.p0(i64 4, ptr %4) #6
  %27 = load ptr, ptr %3, align 8
  %28 = getelementptr inbounds nuw %struct.SDL_DriverXboxOne_Context, ptr %27, i32 0, i32 0
  %29 = load ptr, ptr %28, align 8
  %30 = getelementptr inbounds nuw %struct.SDL_HIDAPI_Device, ptr %29, i32 0, i32 15
  %31 = load i8, ptr %30, align 4, !range !3, !noundef !4
  %32 = trunc i8 %31 to i1
  %33 = select i1 %32, i32 50, i32 10
  store i32 %33, ptr %4, align 4
  %34 = call i64 @SDL_GetTicks_REAL()
  %35 = load ptr, ptr %3, align 8
  %36 = getelementptr inbounds nuw %struct.SDL_DriverXboxOne_Context, ptr %35, i32 0, i32 19
  %37 = load i64, ptr %36, align 8
  %38 = load i32, ptr %4, align 4
  %39 = sext i32 %38 to i64
  %40 = add i64 %37, %39
  %41 = icmp uge i64 %34, %40
  br i1 %41, label %42, label %47

42:                                               ; preds = %26
  %43 = load ptr, ptr %3, align 8
  %44 = getelementptr inbounds nuw %struct.SDL_DriverXboxOne_Context, ptr %43, i32 0, i32 19
  store i64 0, ptr %44, align 8
  %45 = load ptr, ptr %3, align 8
  %46 = getelementptr inbounds nuw %struct.SDL_DriverXboxOne_Context, ptr %45, i32 0, i32 18
  store i32 0, ptr %46, align 4
  br label %47

47:                                               ; preds = %42, %26
  call void @llvm.lifetime.end.p0(i64 4, ptr %4) #6
  br label %48

48:                                               ; preds = %47, %21
  %49 = load ptr, ptr %3, align 8
  %50 = getelementptr inbounds nuw %struct.SDL_DriverXboxOne_Context, ptr %49, i32 0, i32 20
  %51 = load i8, ptr %50, align 8, !range !3, !noundef !4
  %52 = trunc i8 %51 to i1
  br i1 %52, label %54, label %53

53:                                               ; preds = %48
  store i1 true, ptr %2, align 1
  br label %137

54:                                               ; preds = %48
  %55 = load ptr, ptr %3, align 8
  %56 = getelementptr inbounds nuw %struct.SDL_DriverXboxOne_Context, ptr %55, i32 0, i32 18
  %57 = load i32, ptr %56, align 4
  %58 = icmp ne i32 %57, 0
  br i1 %58, label %59, label %60

59:                                               ; preds = %54
  store i1 true, ptr %2, align 1
  br label %137

60:                                               ; preds = %54
  %61 = load ptr, ptr %3, align 8
  %62 = getelementptr inbounds nuw %struct.SDL_DriverXboxOne_Context, ptr %61, i32 0, i32 20
  store i8 0, ptr %62, align 8
  %63 = call zeroext i1 @SDL_HIDAPI_LockRumble()
  br i1 %63, label %65, label %64

64:                                               ; preds = %60
  store i1 false, ptr %2, align 1
  br label %137

65:                                               ; preds = %60
  %66 = load ptr, ptr %3, align 8
  %67 = getelementptr inbounds nuw %struct.SDL_DriverXboxOne_Context, ptr %66, i32 0, i32 0
  %68 = load ptr, ptr %67, align 8
  %69 = getelementptr inbounds nuw %struct.SDL_HIDAPI_Device, ptr %68, i32 0, i32 15
  %70 = load i8, ptr %69, align 4, !range !3, !noundef !4
  %71 = trunc i8 %70 to i1
  br i1 %71, label %72, label %103

72:                                               ; preds = %65
  call void @llvm.lifetime.start.p0(i64 9, ptr %5) #6
  call void @llvm.memcpy.p0.p0.i64(ptr align 1 %5, ptr align 1 @__const.HIDAPI_DriverXboxOne_UpdateRumble.rumble_packet, i64 9, i1 false)
  %73 = load ptr, ptr %3, align 8
  %74 = getelementptr inbounds nuw %struct.SDL_DriverXboxOne_Context, ptr %73, i32 0, i32 16
  %75 = load i8, ptr %74, align 1
  %76 = getelementptr inbounds [9 x i8], ptr %5, i64 0, i64 2
  store i8 %75, ptr %76, align 1
  %77 = load ptr, ptr %3, align 8
  %78 = getelementptr inbounds nuw %struct.SDL_DriverXboxOne_Context, ptr %77, i32 0, i32 17
  %79 = load i8, ptr %78, align 2
  %80 = getelementptr inbounds [9 x i8], ptr %5, i64 0, i64 3
  store i8 %79, ptr %80, align 1
  %81 = load ptr, ptr %3, align 8
  %82 = getelementptr inbounds nuw %struct.SDL_DriverXboxOne_Context, ptr %81, i32 0, i32 14
  %83 = load i8, ptr %82, align 1
  %84 = getelementptr inbounds [9 x i8], ptr %5, i64 0, i64 4
  store i8 %83, ptr %84, align 1
  %85 = load ptr, ptr %3, align 8
  %86 = getelementptr inbounds nuw %struct.SDL_DriverXboxOne_Context, ptr %85, i32 0, i32 15
  %87 = load i8, ptr %86, align 8
  %88 = getelementptr inbounds [9 x i8], ptr %5, i64 0, i64 5
  store i8 %87, ptr %88, align 1
  %89 = load ptr, ptr %3, align 8
  %90 = getelementptr inbounds nuw %struct.SDL_DriverXboxOne_Context, ptr %89, i32 0, i32 0
  %91 = load ptr, ptr %90, align 8
  %92 = getelementptr inbounds [9 x i8], ptr %5, i64 0, i64 0
  %93 = load ptr, ptr %3, align 8
  %94 = call i32 @SDL_HIDAPI_SendRumbleWithCallbackAndUnlock(ptr noundef %91, ptr noundef %92, i32 noundef 9, ptr noundef @HIDAPI_DriverXboxOne_RumbleSent, ptr noundef %93)
  %95 = sext i32 %94 to i64
  %96 = icmp ne i64 %95, 9
  br i1 %96, label %97, label %99

97:                                               ; preds = %72
  %98 = call zeroext i1 (ptr, ...) @SDL_SetError_REAL(ptr noundef @.str.9)
  store i1 %98, ptr %2, align 1
  store i32 1, ptr %6, align 4
  br label %100

99:                                               ; preds = %72
  store i32 0, ptr %6, align 4
  br label %100

100:                                              ; preds = %99, %97
  call void @llvm.lifetime.end.p0(i64 9, ptr %5) #6
  %101 = load i32, ptr %6, align 4
  switch i32 %101, label %139 [
    i32 0, label %102
    i32 1, label %137
  ]

102:                                              ; preds = %100
  br label %134

103:                                              ; preds = %65
  call void @llvm.lifetime.start.p0(i64 13, ptr %7) #6
  call void @llvm.memcpy.p0.p0.i64(ptr align 1 %7, ptr align 1 @__const.HIDAPI_DriverXboxOne_UpdateRumble.rumble_packet.10, i64 13, i1 false)
  %104 = load ptr, ptr %3, align 8
  %105 = getelementptr inbounds nuw %struct.SDL_DriverXboxOne_Context, ptr %104, i32 0, i32 16
  %106 = load i8, ptr %105, align 1
  %107 = getelementptr inbounds [13 x i8], ptr %7, i64 0, i64 6
  store i8 %106, ptr %107, align 1
  %108 = load ptr, ptr %3, align 8
  %109 = getelementptr inbounds nuw %struct.SDL_DriverXboxOne_Context, ptr %108, i32 0, i32 17
  %110 = load i8, ptr %109, align 2
  %111 = getelementptr inbounds [13 x i8], ptr %7, i64 0, i64 7
  store i8 %110, ptr %111, align 1
  %112 = load ptr, ptr %3, align 8
  %113 = getelementptr inbounds nuw %struct.SDL_DriverXboxOne_Context, ptr %112, i32 0, i32 14
  %114 = load i8, ptr %113, align 1
  %115 = getelementptr inbounds [13 x i8], ptr %7, i64 0, i64 8
  store i8 %114, ptr %115, align 1
  %116 = load ptr, ptr %3, align 8
  %117 = getelementptr inbounds nuw %struct.SDL_DriverXboxOne_Context, ptr %116, i32 0, i32 15
  %118 = load i8, ptr %117, align 8
  %119 = getelementptr inbounds [13 x i8], ptr %7, i64 0, i64 9
  store i8 %118, ptr %119, align 1
  %120 = load ptr, ptr %3, align 8
  %121 = getelementptr inbounds nuw %struct.SDL_DriverXboxOne_Context, ptr %120, i32 0, i32 0
  %122 = load ptr, ptr %121, align 8
  %123 = getelementptr inbounds [13 x i8], ptr %7, i64 0, i64 0
  %124 = load ptr, ptr %3, align 8
  %125 = call i32 @SDL_HIDAPI_SendRumbleWithCallbackAndUnlock(ptr noundef %122, ptr noundef %123, i32 noundef 13, ptr noundef @HIDAPI_DriverXboxOne_RumbleSent, ptr noundef %124)
  %126 = sext i32 %125 to i64
  %127 = icmp ne i64 %126, 13
  br i1 %127, label %128, label %130

128:                                              ; preds = %103
  %129 = call zeroext i1 (ptr, ...) @SDL_SetError_REAL(ptr noundef @.str.9)
  store i1 %129, ptr %2, align 1
  store i32 1, ptr %6, align 4
  br label %131

130:                                              ; preds = %103
  store i32 0, ptr %6, align 4
  br label %131

131:                                              ; preds = %130, %128
  call void @llvm.lifetime.end.p0(i64 13, ptr %7) #6
  %132 = load i32, ptr %6, align 4
  switch i32 %132, label %139 [
    i32 0, label %133
    i32 1, label %137
  ]

133:                                              ; preds = %131
  br label %134

134:                                              ; preds = %133, %102
  %135 = load ptr, ptr %3, align 8
  %136 = getelementptr inbounds nuw %struct.SDL_DriverXboxOne_Context, ptr %135, i32 0, i32 18
  store i32 1, ptr %136, align 4
  store i1 true, ptr %2, align 1
  br label %137

137:                                              ; preds = %134, %131, %100, %64, %59, %53
  %138 = load i1, ptr %2, align 1
  ret i1 %138

139:                                              ; preds = %131, %100
  unreachable
}