; Function Attrs: nounwind uwtable
define internal fastcc zeroext i1 @HIDAPI_DriverXboxOne_UpdateRumble(ptr noundef %0) unnamed_addr #0 {
  %2 = alloca [9 x i8], align 1
  %3 = alloca [13 x i8], align 1
  %4 = getelementptr inbounds nuw i8, ptr %0, i64 52
  %5 = load i32, ptr %4, align 4
  switch i32 %5, label %thread-pre-split.thread [
    i32 1, label %6
    i32 2, label %9
  ]

6:                                                ; preds = %1
  %7 = getelementptr inbounds nuw i8, ptr %0, i64 56
  %8 = load i64, ptr %7, align 8
  %.not = icmp eq i64 %8, 0
  br i1 %.not, label %thread-pre-split.thread, label %.thread

.thread:                                          ; preds = %6
  store i32 2, ptr %4, align 4
  br label %9

9:                                                ; preds = %1, %.thread
  %10 = load ptr, ptr %0, align 8
  %11 = getelementptr inbounds nuw i8, ptr %10, i64 84
  %12 = load i8, ptr %11, align 4, !range !3, !noundef !4
  %13 = trunc nuw i8 %12 to i1
  %14 = tail call i64 @SDL_GetTicks_REAL() #9
  %15 = getelementptr inbounds nuw i8, ptr %0, i64 56
  %16 = load i64, ptr %15, align 8
  %17 = select i1 %13, i64 50, i64 10
  %18 = add i64 %16, %17
  %.not30 = icmp ult i64 %14, %18
  br i1 %.not30, label %thread-pre-split.thread, label %19

19:                                               ; preds = %9
  store i64 0, ptr %15, align 8
  store i32 0, ptr %4, align 4
  br label %thread-pre-split.thread

thread-pre-split.thread:                          ; preds = %1, %6, %9, %19
  %20 = getelementptr inbounds nuw i8, ptr %0, i64 64
  %21 = load i8, ptr %20, align 8, !range !3, !noundef !4
  %22 = trunc nuw i8 %21 to i1
  br i1 %22, label %23, label %61

23:                                               ; preds = %thread-pre-split.thread
  %24 = load i32, ptr %4, align 4
  %.not31 = icmp eq i32 %24, 0
  br i1 %.not31, label %25, label %61

25:                                               ; preds = %23
  store i8 0, ptr %20, align 8
  %26 = tail call zeroext i1 @SDL_HIDAPI_LockRumble() #9
  br i1 %26, label %27, label %61

27:                                               ; preds = %25
  %28 = load ptr, ptr %0, align 8
  %29 = getelementptr inbounds nuw i8, ptr %28, i64 84
  %30 = load i8, ptr %29, align 4, !range !3, !noundef !4
  %31 = trunc nuw i8 %30 to i1
  %32 = getelementptr inbounds nuw i8, ptr %0, i64 49
  %33 = getelementptr inbounds nuw i8, ptr %0, i64 50
  %34 = getelementptr inbounds nuw i8, ptr %0, i64 47
  %35 = getelementptr inbounds nuw i8, ptr %0, i64 48
  br i1 %31, label %36, label %48

36:                                               ; preds = %27
  call void @llvm.lifetime.start.p0(i64 9, ptr nonnull %2) #9
  call void @llvm.memcpy.p0.p0.i64(ptr noundef nonnull align 1 dereferenceable(9) %2, ptr noundef nonnull align 1 dereferenceable(9) @__const.HIDAPI_DriverXboxOne_UpdateRumble.rumble_packet, i64 9, i1 false)
  %37 = load i8, ptr %32, align 1
  %38 = getelementptr inbounds nuw i8, ptr %2, i64 2
  store i8 %37, ptr %38, align 1
  %39 = load i8, ptr %33, align 2
  %40 = getelementptr inbounds nuw i8, ptr %2, i64 3
  store i8 %39, ptr %40, align 1
  %41 = load i8, ptr %34, align 1
  %42 = getelementptr inbounds nuw i8, ptr %2, i64 4
  store i8 %41, ptr %42, align 1
  %43 = load i8, ptr %35, align 8
  %44 = getelementptr inbounds nuw i8, ptr %2, i64 5
  store i8 %43, ptr %44, align 1
  %45 = call i32 @SDL_HIDAPI_SendRumbleWithCallbackAndUnlock(ptr noundef nonnull %28, ptr noundef nonnull %2, i32 noundef 9, ptr noundef nonnull @HIDAPI_DriverXboxOne_RumbleSent, ptr noundef nonnull %0) #9
  %.not33.not = icmp eq i32 %45, 9
  br i1 %.not33.not, label %.thread36, label %46

.thread36:                                        ; preds = %36
  call void @llvm.lifetime.end.p0(i64 9, ptr nonnull %2) #9
  br label %60

46:                                               ; preds = %36
  %47 = call zeroext i1 (ptr, ...) @SDL_SetError_REAL(ptr noundef nonnull @.str.9) #9
  call void @llvm.lifetime.end.p0(i64 9, ptr nonnull %2) #9
  br label %61

48:                                               ; preds = %27
  call void @llvm.lifetime.start.p0(i64 13, ptr nonnull %3) #9
  call void @llvm.memcpy.p0.p0.i64(ptr noundef nonnull align 1 dereferenceable(13) %3, ptr noundef nonnull align 1 dereferenceable(13) @__const.HIDAPI_DriverXboxOne_UpdateRumble.rumble_packet.10, i64 13, i1 false)
  %49 = load i8, ptr %32, align 1
  %50 = getelementptr inbounds nuw i8, ptr %3, i64 6
  store i8 %49, ptr %50, align 1
  %51 = load i8, ptr %33, align 2
  %52 = getelementptr inbounds nuw i8, ptr %3, i64 7
  store i8 %51, ptr %52, align 1
  %53 = load i8, ptr %34, align 1
  %54 = getelementptr inbounds nuw i8, ptr %3, i64 8
  store i8 %53, ptr %54, align 1
  %55 = load i8, ptr %35, align 8
  %56 = getelementptr inbounds nuw i8, ptr %3, i64 9
  store i8 %55, ptr %56, align 1
  %57 = call i32 @SDL_HIDAPI_SendRumbleWithCallbackAndUnlock(ptr noundef nonnull %28, ptr noundef nonnull %3, i32 noundef 13, ptr noundef nonnull @HIDAPI_DriverXboxOne_RumbleSent, ptr noundef nonnull %0) #9
  %.not32.not = icmp eq i32 %57, 13
  br i1 %.not32.not, label %.thread39, label %58

.thread39:                                        ; preds = %48
  call void @llvm.lifetime.end.p0(i64 13, ptr nonnull %3) #9
  br label %60

58:                                               ; preds = %48
  %59 = call zeroext i1 (ptr, ...) @SDL_SetError_REAL(ptr noundef nonnull @.str.9) #9
  call void @llvm.lifetime.end.p0(i64 13, ptr nonnull %3) #9
  br label %61

60:                                               ; preds = %.thread39, %.thread36
  store i32 1, ptr %4, align 4
  br label %61

61:                                               ; preds = %58, %46, %25, %23, %thread-pre-split.thread, %60
  %.028 = phi i1 [ %47, %46 ], [ true, %60 ], [ %59, %58 ], [ true, %thread-pre-split.thread ], [ true, %23 ], [ false, %25 ]
  ret i1 %.028
}